; Function Attrs: mustprogress uwtable
define void @_ZN9grpc_core5Arena24DestroyManagedNewObjectsEv(ptr nocapture noundef nonnull align 8 dereferenceable(48) %this) local_unnamed_addr #5 align 2 personality ptr @__gxx_personality_v0 {
entry:
  %managed_new_head_ = getelementptr inbounds i8, ptr %this, i64 32
  %0 = atomicrmw xchg ptr %managed_new_head_, i64 0 monotonic, align 8
  %cmp.not4 = icmp eq i64 %0, 0
  br i1 %cmp.not4, label %while.end6, label %while.cond2.preheader

while.cond.loopexit:                              ; preds = %while.body4
  %1 = atomicrmw xchg ptr %managed_new_head_, i64 0 monotonic, align 8
  %cmp.not = icmp eq i64 %1, 0
  br i1 %cmp.not, label %while.end6, label %while.cond2.preheader, !llvm.loop !6

while.cond2.preheader:                            ; preds = %entry, %while.cond.loopexit
  %atomic-temp.i.0.i5.in = phi i64 [ %1, %while.cond.loopexit ], [ %0, %entry ]
  %atomic-temp.i.0.i5 = inttoptr i64 %atomic-temp.i.0.i5.in to ptr
  br label %while.body4

while.body4:                                      ; preds = %while.cond2.preheader, %while.body4
  %p.02 = phi ptr [ %atomic-temp.i.0.i5, %while.cond2.preheader ], [ %2, %while.body4 ]
  %next = getelementptr inbounds i8, ptr %p.02, i64 8
  %2 = load ptr, ptr %next, align 8
  %vtable.i = load ptr, ptr %p.02, align 8
  %3 = load ptr, ptr %vtable.i, align 8
  tail call void %3(ptr noundef nonnull align 8 dereferenceable(16) %p.02) #11
  %cmp3.not = icmp eq ptr %2, null
  br i1 %cmp3.not, label %while.cond.loopexit, label %while.body4, !llvm.loop !7

while.end6:                                       ; preds = %while.cond.loopexit, %entry
  ret void
}